target datalayout = "e-m:e-p270:32:32-p271:32:32-p272:64:64-i64:64-i128:128-f80:128-n8:16:32:64-S128"
target triple = "x86_64-pc-linux-gnu"

@.str.24 = private unnamed_addr constant [49 x i8] c"Verification of CEX has failed: f(A) == f(B)!!!\0A\00", align 1
@.str.25 = private unnamed_addr constant [57 x i8] c"Verification of CEX has failed: g[%d](A) != g[%d](B)!!!\0A\00", align 1

; Function Attrs: inlinehint nounwind uwtable
define internal i32 @Abc_TtGetBit(ptr noundef %0, i32 noundef %1) #2 {
  %3 = alloca ptr, align 8
  %4 = alloca i32, align 4
  store ptr %0, ptr %3, align 8, !tbaa !7
  store i32 %1, ptr %4, align 4, !tbaa !3
  %5 = load ptr, ptr %3, align 8, !tbaa !7
  %6 = load i32, ptr %4, align 4, !tbaa !3
  %7 = ashr i32 %6, 6
  %8 = sext i32 %7 to i64
  %9 = getelementptr inbounds i64, ptr %5, i64 %8
  %10 = load i64, ptr %9, align 8, !tbaa !14
  %11 = load i32, ptr %4, align 4, !tbaa !3
  %12 = and i32 %11, 63
  %13 = zext i32 %12 to i64
  %14 = lshr i64 %10, %13
  %15 = trunc i64 %14 to i32
  %16 = and i32 %15, 1
  ret i32 %16
}

; Function Attrs: inlinehint nounwind uwtable
define internal i32 @Rsb_DecTryCex(ptr noundef %0, i32 noundef %1, i32 noundef %2) #2 {
  %4 = alloca ptr, align 8
  %5 = alloca i32, align 4
  %6 = alloca i32, align 4
  store ptr %0, ptr %4, align 8, !tbaa !7
  store i32 %1, ptr %5, align 4, !tbaa !3
  store i32 %2, ptr %6, align 4, !tbaa !3
  %7 = load ptr, ptr %4, align 8, !tbaa !7
  %8 = load i32, ptr %5, align 4, !tbaa !3
  %9 = call i32 @Abc_TtGetBit(ptr noundef %7, i32 noundef %8)
  %10 = load ptr, ptr %4, align 8, !tbaa !7
  %11 = load i32, ptr %6, align 4, !tbaa !3
  %12 = call i32 @Abc_TtGetBit(ptr noundef %10, i32 noundef %11)
  %13 = icmp eq i32 %9, %12
  %14 = zext i1 %13 to i32
  ret i32 %14
}

; Function Attrs: inlinehint nounwind uwtable
define internal void @Rsb_DecVerifyCex(ptr noundef %0, ptr noundef %1, i32 noundef %2, i32 noundef %3, i32 noundef %4) #2 {
  %6 = alloca ptr, align 8
  %7 = alloca ptr, align 8
  %8 = alloca i32, align 4
  %9 = alloca i32, align 4
  %10 = alloca i32, align 4
  %11 = alloca i32, align 4
  store ptr %0, ptr %6, align 8, !tbaa !7
  store ptr %1, ptr %7, align 8, !tbaa !10
  store i32 %2, ptr %8, align 4, !tbaa !3
  store i32 %3, ptr %9, align 4, !tbaa !3
  store i32 %4, ptr %10, align 4, !tbaa !3
  call void @llvm.lifetime.start.p0(i64 4, ptr %11) #8
  %12 = load ptr, ptr %6, align 8, !tbaa !7
  %13 = load i32, ptr %9, align 4, !tbaa !3
  %14 = load i32, ptr %10, align 4, !tbaa !3
  %15 = call i32 @Rsb_DecTryCex(ptr noundef %12, i32 noundef %13, i32 noundef %14)
  %16 = icmp ne i32 %15, 0
  br i1 %16, label %17, label %19

17:                                               ; preds = %5
  %18 = call i32 (ptr, ...) @printf(ptr noundef @.str.24)
  br label %19

19:                                               ; preds = %17, %5
  store i32 0, ptr %11, align 4, !tbaa !3
  br label %20

20:                                               ; preds = %39, %19
  %21 = load i32, ptr %11, align 4, !tbaa !3
  %22 = load i32, ptr %8, align 4, !tbaa !3
  %23 = icmp slt i32 %21, %22
  br i1 %23, label %24, label %42

24:                                               ; preds = %20
  %25 = load ptr, ptr %7, align 8, !tbaa !10
  %26 = load i32, ptr %11, align 4, !tbaa !3
  %27 = sext i32 %26 to i64
  %28 = getelementptr inbounds ptr, ptr %25, i64 %27
  %29 = load ptr, ptr %28, align 8, !tbaa !7
  %30 = load i32, ptr %9, align 4, !tbaa !3
  %31 = load i32, ptr %10, align 4, !tbaa !3
  %32 = call i32 @Rsb_DecTryCex(ptr noundef %29, i32 noundef %30, i32 noundef %31)
  %33 = icmp ne i32 %32, 0
  br i1 %33, label %38, label %34

34:                                               ; preds = %24
  %35 = load i32, ptr %11, align 4, !tbaa !3
  %36 = load i32, ptr %11, align 4, !tbaa !3
  %37 = call i32 (ptr, ...) @printf(ptr noundef @.str.25, i32 noundef %35, i32 noundef %36)
  br label %38

38:                                               ; preds = %34, %24
  br label %39

39:                                               ; preds = %38
  %40 = load i32, ptr %11, align 4, !tbaa !3
  %41 = add nsw i32 %40, 1
  store i32 %41, ptr %11, align 4, !tbaa !3
  br label %20, !llvm.loop !73

42:                                               ; preds = %20
  call void @llvm.lifetime.end.p0(i64 4, ptr %11) #8
  ret void
}