; Function Attrs: inlinehint nofree nounwind uwtable
define internal fastcc void @Rsb_DecVerifyCex(ptr noundef readonly captures(none) %0, ptr noundef nonnull readonly captures(none) %1, i32 noundef %2, i32 noundef %3, i32 noundef %4) unnamed_addr #10 {
  %6 = ashr i32 %3, 6
  %7 = sext i32 %6 to i64
  %8 = getelementptr inbounds i64, ptr %0, i64 %7
  %9 = load i64, ptr %8, align 8, !tbaa !10
  %10 = and i32 %3, 63
  %11 = zext nneg i32 %10 to i64
  %12 = lshr i64 %9, %11
  %13 = ashr i32 %4, 6
  %14 = sext i32 %13 to i64
  %15 = getelementptr inbounds i64, ptr %0, i64 %14
  %16 = load i64, ptr %15, align 8, !tbaa !10
  %17 = and i32 %4, 63
  %18 = zext nneg i32 %17 to i64
  %19 = lshr i64 %16, %18
  %20 = xor i64 %19, %12
  %21 = and i64 %20, 1
  %.not.not = icmp eq i64 %21, 0
  br i1 %.not.not, label %22, label %23

22:                                               ; preds = %5
  %puts = tail call i32 @puts(ptr nonnull dereferenceable(1) @str.1)
  br label %23

23:                                               ; preds = %22, %5
  %24 = icmp sgt i32 %2, 0
  br i1 %24, label %.lr.ph.preheader, label %._crit_edge

.lr.ph.preheader:                                 ; preds = %23
  %wide.trip.count = zext nneg i32 %2 to i64
  br label %.lr.ph

.lr.ph:                                           ; preds = %.lr.ph.preheader, %38
  %indvars.iv = phi i64 [ 0, %.lr.ph.preheader ], [ %indvars.iv.next, %38 ]
  %25 = getelementptr inbounds nuw ptr, ptr %1, i64 %indvars.iv
  %26 = load ptr, ptr %25, align 8, !tbaa !7
  %27 = getelementptr inbounds i64, ptr %26, i64 %7
  %28 = load i64, ptr %27, align 8, !tbaa !10
  %29 = lshr i64 %28, %11
  %30 = getelementptr inbounds i64, ptr %26, i64 %14
  %31 = load i64, ptr %30, align 8, !tbaa !10
  %32 = lshr i64 %31, %18
  %33 = xor i64 %32, %29
  %34 = and i64 %33, 1
  %.not11.not = icmp eq i64 %34, 0
  br i1 %.not11.not, label %38, label %35

35:                                               ; preds = %.lr.ph
  %36 = trunc nuw nsw i64 %indvars.iv to i32
  %37 = tail call i32 (ptr, ...) @printf(ptr noundef nonnull dereferenceable(1) @.str.25, i32 noundef %36, i32 noundef %36)
  br label %38

38:                                               ; preds = %.lr.ph, %35
  %indvars.iv.next = add nuw nsw i64 %indvars.iv, 1
  %exitcond.not = icmp eq i64 %indvars.iv.next, %wide.trip.count
  br i1 %exitcond.not, label %._crit_edge, label %.lr.ph, !llvm.loop !53

._crit_edge:                                      ; preds = %38, %23
  ret void
}